target datalayout = "e-m:e-p270:32:32-p271:32:32-p272:64:64-i64:64-i128:128-f80:128-n8:16:32:64-S128"
target triple = "x86_64-pc-linux-gnu"

%"class.Ipopt::FilterLSAcceptor" = type { %"class.Ipopt::BacktrackingLSAcceptor.base", double, double, double, double, double, double, double, double, double, double, double, i32, double, double, i32, i32, double, i8, i8, i32, i32, double, double, double, double, double, double, %"class.Ipopt::Filter", i8, i32, i32, %"class.Ipopt::SmartPtr.3" }
%"class.Ipopt::BacktrackingLSAcceptor.base" = type { %"class.Ipopt::AlgorithmStrategyObject.base" }
%"class.Ipopt::AlgorithmStrategyObject.base" = type <{ %"class.Ipopt::ReferencedObject.base", [4 x i8], %"class.Ipopt::SmartPtr", %"class.Ipopt::SmartPtr.0", %"class.Ipopt::SmartPtr.1", %"class.Ipopt::SmartPtr.2", i8 }>
%"class.Ipopt::ReferencedObject.base" = type <{ ptr, i32 }>
%"class.Ipopt::SmartPtr" = type { ptr }
%"class.Ipopt::SmartPtr.0" = type { ptr }
%"class.Ipopt::SmartPtr.1" = type { ptr }
%"class.Ipopt::SmartPtr.2" = type { ptr }
%"class.Ipopt::Filter" = type { i32, %"class.std::__cxx11::list" }
%"class.std::__cxx11::list" = type { %"class.std::__cxx11::_List_base" }
%"class.std::__cxx11::_List_base" = type { %"struct.std::__cxx11::_List_base<Ipopt::FilterEntry *, std::allocator<Ipopt::FilterEntry *>>::_List_impl" }
%"struct.std::__cxx11::_List_base<Ipopt::FilterEntry *, std::allocator<Ipopt::FilterEntry *>>::_List_impl" = type { %"struct.std::__detail::_List_node_header" }
%"struct.std::__detail::_List_node_header" = type { %"struct.std::__detail::_List_node_base", i64 }
%"struct.std::__detail::_List_node_base" = type { ptr, ptr }
%"class.Ipopt::SmartPtr.3" = type { ptr }
%"class.Ipopt::AlgorithmStrategyObject" = type <{ %"class.Ipopt::ReferencedObject.base", [4 x i8], %"class.Ipopt::SmartPtr", %"class.Ipopt::SmartPtr.0", %"class.Ipopt::SmartPtr.1", %"class.Ipopt::SmartPtr.2", i8, [7 x i8] }>

; Function Attrs: mustprogress nounwind uwtable
define linkonce_odr noundef nonnull align 8 dereferenceable(8) ptr @_ZSt3minIdERKT_S2_S2_(ptr noundef nonnull align 8 dereferenceable(8) %0, ptr noundef nonnull align 8 dereferenceable(8) %1) #5 comdat {
  %3 = alloca ptr, align 8
  %4 = alloca ptr, align 8
  %5 = alloca ptr, align 8
  store ptr %0, ptr %4, align 8
  store ptr %1, ptr %5, align 8
  %6 = load ptr, ptr %5, align 8
  %7 = load double, ptr %6, align 8
  %8 = load ptr, ptr %4, align 8
  %9 = load double, ptr %8, align 8
  %10 = fcmp olt double %7, %9
  br i1 %10, label %11, label %13

11:                                               ; preds = %2
  %12 = load ptr, ptr %5, align 8
  store ptr %12, ptr %3, align 8
  br label %15

13:                                               ; preds = %2
  %14 = load ptr, ptr %4, align 8
  store ptr %14, ptr %3, align 8
  br label %15

15:                                               ; preds = %13, %11
  %16 = load ptr, ptr %3, align 8
  ret ptr %16
}

; Function Attrs: mustprogress nounwind uwtable
define linkonce_odr noundef nonnull align 8 dereferenceable(2185) ptr @_ZNK5Ipopt8SmartPtrINS_25IpoptCalculatedQuantitiesEEdeEv(ptr noundef nonnull align 8 dereferenceable(8) %0) #5 comdat align 2 {
  %2 = alloca ptr, align 8
  store ptr %0, ptr %2, align 8
  %3 = load ptr, ptr %2, align 8
  %4 = getelementptr inbounds %"class.Ipopt::SmartPtr.2", ptr %3, i32 0, i32 0
  %5 = load ptr, ptr %4, align 8
  ret ptr %5
}

; Function Attrs: mustprogress uwtable
define linkonce_odr noundef double @_ZN5Ipopt3MinIdEET_S1_S1_(double noundef %0, double noundef %1) #4 comdat {
  %3 = alloca double, align 8
  %4 = alloca double, align 8
  store double %0, ptr %3, align 8
  store double %1, ptr %4, align 8
  %5 = call noundef nonnull align 8 dereferenceable(8) ptr @_ZSt3minIdERKT_S2_S2_(ptr noundef nonnull align 8 dereferenceable(8) %3, ptr noundef nonnull align 8 dereferenceable(8) %4)
  %6 = load double, ptr %5, align 8
  ret double %6
}

; Function Attrs: mustprogress uwtable
define linkonce_odr noundef nonnull align 8 dereferenceable(2185) ptr @_ZNK5Ipopt23AlgorithmStrategyObject4IpCqEv(ptr noundef nonnull align 8 dereferenceable(49) %0) #4 comdat align 2 {
  %2 = alloca ptr, align 8
  store ptr %0, ptr %2, align 8
  %3 = load ptr, ptr %2, align 8
  %4 = getelementptr inbounds %"class.Ipopt::AlgorithmStrategyObject", ptr %3, i32 0, i32 5
  %5 = call noundef nonnull align 8 dereferenceable(2185) ptr @_ZNK5Ipopt8SmartPtrINS_25IpoptCalculatedQuantitiesEEdeEv(ptr noundef nonnull align 8 dereferenceable(8) %4)
  ret ptr %5
}

; Function Attrs: mustprogress uwtable
define noundef double @_ZN5Ipopt16FilterLSAcceptor17CalculateAlphaMinEv(ptr noundef nonnull align 8 dereferenceable(304) %0) unnamed_addr #4 align 2 {
  %2 = alloca ptr, align 8
  %3 = alloca double, align 8
  %4 = alloca double, align 8
  %5 = alloca double, align 8
  store ptr %0, ptr %2, align 8
  %6 = load ptr, ptr %2, align 8
  %7 = call noundef nonnull align 8 dereferenceable(2185) ptr @_ZNK5Ipopt23AlgorithmStrategyObject4IpCqEv(ptr noundef nonnull align 8 dereferenceable(49) %6)
  %8 = call noundef double @_ZN5Ipopt25IpoptCalculatedQuantities19curr_gradBarrTDeltaEv(ptr noundef nonnull align 8 dereferenceable(2185) %7)
  store double %8, ptr %3, align 8
  %9 = call noundef nonnull align 8 dereferenceable(2185) ptr @_ZNK5Ipopt23AlgorithmStrategyObject4IpCqEv(ptr noundef nonnull align 8 dereferenceable(49) %6)
  %10 = load ptr, ptr %9, align 8
  %11 = getelementptr inbounds ptr, ptr %10, i64 8
  %12 = load ptr, ptr %11, align 8
  %13 = call noundef double %12(ptr noundef nonnull align 8 dereferenceable(2185) %9)
  store double %13, ptr %4, align 8
  %14 = getelementptr inbounds %"class.Ipopt::FilterLSAcceptor", ptr %6, i32 0, i32 10
  %15 = load double, ptr %14, align 8
  store double %15, ptr %5, align 8
  %16 = load double, ptr %3, align 8
  %17 = fcmp olt double %16, 0.000000e+00
  br i1 %17, label %18, label %50

18:                                               ; preds = %1
  %19 = getelementptr inbounds %"class.Ipopt::FilterLSAcceptor", ptr %6, i32 0, i32 10
  %20 = load double, ptr %19, align 8
  %21 = getelementptr inbounds %"class.Ipopt::FilterLSAcceptor", ptr %6, i32 0, i32 9
  %22 = load double, ptr %21, align 8
  %23 = load double, ptr %4, align 8
  %24 = fmul double %22, %23
  %25 = load double, ptr %3, align 8
  %26 = fneg double %25
  %27 = fdiv double %24, %26
  %28 = call noundef double @_ZN5Ipopt3MinIdEET_S1_S1_(double noundef %20, double noundef %27)
  store double %28, ptr %5, align 8
  %29 = load double, ptr %4, align 8
  %30 = getelementptr inbounds %"class.Ipopt::FilterLSAcceptor", ptr %6, i32 0, i32 3
  %31 = load double, ptr %30, align 8
  %32 = fcmp ole double %29, %31
  br i1 %32, label %33, label %49

33:                                               ; preds = %18
  %34 = load double, ptr %5, align 8
  %35 = getelementptr inbounds %"class.Ipopt::FilterLSAcceptor", ptr %6, i32 0, i32 6
  %36 = load double, ptr %35, align 8
  %37 = load double, ptr %4, align 8
  %38 = getelementptr inbounds %"class.Ipopt::FilterLSAcceptor", ptr %6, i32 0, i32 8
  %39 = load double, ptr %38, align 8
  %40 = call double @pow(double noundef %37, double noundef %39) #3
  %41 = fmul double %36, %40
  %42 = load double, ptr %3, align 8
  %43 = fneg double %42
  %44 = getelementptr inbounds %"class.Ipopt::FilterLSAcceptor", ptr %6, i32 0, i32 7
  %45 = load double, ptr %44, align 8
  %46 = call double @pow(double noundef %43, double noundef %45) #3
  %47 = fdiv double %41, %46
  %48 = call noundef double @_ZN5Ipopt3MinIdEET_S1_S1_(double noundef %34, double noundef %47)
  store double %48, ptr %5, align 8
  br label %49

49:                                               ; preds = %33, %18
  br label %50

50:                                               ; preds = %49, %1
  %51 = getelementptr inbounds %"class.Ipopt::FilterLSAcceptor", ptr %6, i32 0, i32 11
  %52 = load double, ptr %51, align 8
  %53 = load double, ptr %5, align 8
  %54 = fmul double %52, %53
  ret double %54
}