; Function Attrs: mustprogress uwtable
define noundef double @_ZN5Ipopt16FilterLSAcceptor17CalculateAlphaMinEv(ptr nocapture noundef nonnull readonly align 8 dereferenceable(304) %0) unnamed_addr #3 align 2 {
  %2 = getelementptr inbounds i8, ptr %0, i64 40
  %3 = load ptr, ptr %2, align 8
  %4 = tail call noundef double @_ZN5Ipopt25IpoptCalculatedQuantities19curr_gradBarrTDeltaEv(ptr noundef nonnull align 8 dereferenceable(2185) %3)
  %5 = load ptr, ptr %2, align 8
  %6 = load ptr, ptr %5, align 8
  %7 = getelementptr inbounds i8, ptr %6, i64 64
  %8 = load ptr, ptr %7, align 8
  %9 = tail call noundef double %8(ptr noundef nonnull align 8 dereferenceable(2185) %5)
  %10 = getelementptr inbounds i8, ptr %0, i64 128
  %11 = load double, ptr %10, align 8
  %12 = fcmp olt double %4, 0.000000e+00
  br i1 %12, label %13, label %35

13:                                               ; preds = %1
  %14 = getelementptr inbounds i8, ptr %0, i64 120
  %15 = load double, ptr %14, align 8
  %16 = fmul double %9, %15
  %17 = fneg double %4
  %18 = fdiv double %16, %17
  %19 = fcmp olt double %18, %11
  %.sroa.speculated.i = select i1 %19, double %18, double %11
  %20 = getelementptr inbounds i8, ptr %0, i64 72
  %21 = load double, ptr %20, align 8
  %22 = fcmp ugt double %9, %21
  br i1 %22, label %35, label %23

23:                                               ; preds = %13
  %24 = getelementptr inbounds i8, ptr %0, i64 96
  %25 = load double, ptr %24, align 8
  %26 = getelementptr inbounds i8, ptr %0, i64 112
  %27 = load double, ptr %26, align 8
  %28 = tail call double @pow(double noundef %9, double noundef %27) #19
  %29 = fmul double %25, %28
  %30 = getelementptr inbounds i8, ptr %0, i64 104
  %31 = load double, ptr %30, align 8
  %32 = tail call double @pow(double noundef %17, double noundef %31) #19
  %33 = fdiv double %29, %32
  %34 = fcmp olt double %33, %.sroa.speculated.i
  %.sroa.speculated.i11 = select i1 %34, double %33, double %.sroa.speculated.i
  br label %35

35:                                               ; preds = %13, %23, %1
  %.0 = phi double [ %.sroa.speculated.i11, %23 ], [ %.sroa.speculated.i, %13 ], [ %11, %1 ]
  %36 = getelementptr inbounds i8, ptr %0, i64 136
  %37 = load double, ptr %36, align 8
  %38 = fmul double %.0, %37
  ret double %38
}